target datalayout = "e-m:e-p270:32:32-p271:32:32-p272:64:64-i64:64-i128:128-f80:128-n8:16:32:64-S128"
target triple = "x86_64-pc-linux-gnu"

%struct.RainData = type { [200 x %struct.Group], float, i32, i32, i32 }
%struct.Group = type { [5 x %struct.Human] }
%struct.Human = type { [11 x %struct.Bone], float, i8 }
%struct.Bone = type { %struct.b2BodyId, %struct.b2JointId, float, i32 }
%struct.b2BodyId = type { i32, i16, i16 }
%struct.b2JointId = type { i32, i16, i16 }

@g_rainData = global %struct.RainData zeroinitializer, align 4

; Function Attrs: nounwind uwtable
define void @DestroyGroup(i32 noundef %0, i32 noundef %1) #0 {
  %3 = alloca i32, align 4
  %4 = alloca i32, align 4
  %5 = alloca i32, align 4
  %6 = alloca i32, align 4
  store i32 %0, ptr %3, align 4, !tbaa !3
  store i32 %1, ptr %4, align 4, !tbaa !3
  call void @llvm.lifetime.start.p0(i64 4, ptr %5) #9
  %7 = load i32, ptr %3, align 4, !tbaa !3
  %8 = mul nsw i32 %7, 40
  %9 = load i32, ptr %4, align 4, !tbaa !3
  %10 = add nsw i32 %8, %9
  store i32 %10, ptr %5, align 4, !tbaa !3
  call void @llvm.lifetime.start.p0(i64 4, ptr %6) #9
  store i32 0, ptr %6, align 4, !tbaa !3
  br label %11

11:                                               ; preds = %24, %2
  %12 = load i32, ptr %6, align 4, !tbaa !3
  %13 = icmp slt i32 %12, 5
  br i1 %13, label %15, label %14

14:                                               ; preds = %11
  call void @llvm.lifetime.end.p0(i64 4, ptr %6) #9
  br label %27

15:                                               ; preds = %11
  %16 = load i32, ptr %5, align 4, !tbaa !3
  %17 = sext i32 %16 to i64
  %18 = getelementptr inbounds [200 x %struct.Group], ptr @g_rainData, i64 0, i64 %17
  %19 = getelementptr inbounds nuw %struct.Group, ptr %18, i32 0, i32 0
  %20 = getelementptr inbounds [5 x %struct.Human], ptr %19, i64 0, i64 0
  %21 = load i32, ptr %6, align 4, !tbaa !3
  %22 = sext i32 %21 to i64
  %23 = getelementptr inbounds %struct.Human, ptr %20, i64 %22
  call void @DestroyHuman(ptr noundef %23)
  br label %24

24:                                               ; preds = %15
  %25 = load i32, ptr %6, align 4, !tbaa !3
  %26 = add nsw i32 %25, 1
  store i32 %26, ptr %6, align 4, !tbaa !3
  br label %11, !llvm.loop !51

27:                                               ; preds = %14
  call void @llvm.lifetime.end.p0(i64 4, ptr %5) #9
  ret void
}