; Function Attrs: nounwind uwtable
define void @DestroyGroup(i32 noundef %0, i32 noundef %1) local_unnamed_addr #0 {
  %3 = mul nsw i32 %0, 40
  %4 = add nsw i32 %3, %1
  %5 = sext i32 %4 to i64
  %6 = getelementptr inbounds [200 x %struct.Group], ptr @g_rainData, i64 0, i64 %5
  br label %8

7:                                                ; preds = %8
  ret void

8:                                                ; preds = %2, %8
  %indvars.iv = phi i64 [ 0, %2 ], [ %indvars.iv.next, %8 ]
  %9 = getelementptr inbounds nuw %struct.Human, ptr %6, i64 %indvars.iv
  tail call void @DestroyHuman(ptr noundef nonnull %9) #8
  %indvars.iv.next = add nuw nsw i64 %indvars.iv, 1
  %exitcond.not = icmp eq i64 %indvars.iv.next, 5
  br i1 %exitcond.not, label %7, label %8, !llvm.loop !43
}